Turbo Assembler	 Version 2.5	    14/06/19 22:01:30	    Page 1
utf-8.ASM



      1					 .386
      2	    0000			 CODE	 SEGMENT USE16
      3						 ASSUME	 CS:CODE, DS:CODE
      4						 org	 81h
      5	    0081			 cline:
      6						 org	 100h
      7	    0100  66| 81 3E 0081r     +	 start:	 cmp	 dword ptr [cline],'uw-	'
      8		  75772D20
      9	    0109  74 5F				 jz	 w2u
     10	    010B  66| 81 3E 0081r     +		 cmp	 dword ptr [cline],'ud-	'
     11		  75642D20
     12	    0114  0F 84	00D4			 jz	 d2u
     13	    0118  66| 81 3E 0081r     +		 cmp	 dword ptr [cline],'wu-	'
     14		  77752D20
     15	    0121  0F 84	01C2			 jz	 u2w
     16	    0125  66| 81 3E 0081r     +		 cmp	 dword ptr [cline],'du-	'
     17		  64752D20
     18	    012E  0F 84	0129			 jz	 u2d
     19	    0132  66| 81 3E 0081r     +		 cmp	 dword ptr [cline],'wd-	'
     20		  77642D20
     21	    013B  0F 84	0252			 jz	 d2w
     22	    013F  66| 81 3E 0081r     +		 cmp	 dword ptr [cline],'dw-	'
     23		  64772D20
     24	    0148  0F 84	0291			 jz	 w2d
     25	    014C  66| 81 3E 0081r     +		 cmp	 dword ptr [cline],'sh-	'
     26		  73682D20
     27	    0155  0F 84	02CB			 jz	 h2s
     28	    0159  BA 0463r			 lea	 dx,mess
     29	    015C  B9 0144			 mov	 cx,offset buf - offset	mess
     30	    015F  B4 40				 mov	 ah,40h
     31	    0161  BB 0002			 mov	 bx,2
     32	    0164  CD 21				 int	 21H
     33	    0166  B4 4C			 exit:	 MOV	 ah,4CH
     34	    0168  CD 21				 int	 21h
     35
     36	    016A  B4 3F			 w2u:	 mov	 ah,3Fh
     37	    016C  33 DB				 xor	 bx,bx
     38	    016E  B9 0001			 mov	 cx,1
     39	    0171  BA 05A7r			 lea	 dx,buf
     40	    0174  CD 21				 int	 21h
     41	    0176  72 EE				 jc	 exit
     42	    0178  0A C4				 or	 al,ah
     43	    017A  74 EA				 jz	 exit
     44	    017C  A0 05A7r			 mov	 al,buf
     45	    017F  3C 80				 cmp	 al,080h
     46	    0181  72 60				 jc	 wu00
     47	    0183  3C A8				 cmp	 al,'¨'
     48	    0185  74 41				 jz	 wu09
     49	    0187  3C B8				 cmp	 al,'¸'
     50	    0189  74 45				 jz	 wu08
     51	    018B  3C B9				 cmp	 al,'¹'
     52	    018D  74 49				 jz	 wu07
     53	    018F  3C A0				 cmp	 al,0A0h
     54	    0191  72 14				 jc	 wu04
     55	    0193  3C C0				 cmp	 al,0C0h
     56	    0195  72 1B				 jc	 wu05
     57	    0197  3C F0				 cmp	 al,0F0h
Turbo Assembler	 Version 2.5	    14/06/19 22:01:30	    Page 2
utf-8.ASM



     58	    0199  72 21				 jc	 wu06
     59	    019B  2C 70				 sub	 al,70h
     60	    019D  C6 06	05A7r D1		 mov	 [buf],0D1h
     61	    01A2  A2 05A8r			 mov	 [buf+1],al
     62	    01A5  EB 3B				 jmp	 wu02
     63	    01A7  8A D8			 wu04:	 mov	 bl,al
     64	    01A9  8A 87	052Br			 mov	 al,[bx	+ offset t1251 - 080h]
     65	    01AD  A2 05A7r			 mov	 buf,al
     66	    01B0  EB 31				 jmp	 wu00
     67	    01B2  C6 06	05A7r C2	 wu05:	 mov	 [buf],0C2h
     68	    01B7  A2 05A8r			 mov	 [buf+1],al
     69	    01BA  EB 26				 jmp	 wu02
     70	    01BC  2C 30			 wu06:	 sub	 al,30h
     71	    01BE  C6 06	05A7r D0		 mov	 [buf],0D0h
     72	    01C3  A2 05A8r			 mov	 [buf+1],al
     73	    01C6  EB 1A				 jmp	 wu02
     74	    01C8  C7 06	05A7r 81D0	 wu09:	 mov	 word ptr [buf],081D0h
     75	    01CE  EB 12				 jmp	 wu02
     76	    01D0  C7 06	05A7r 91D1	 wu08:	 mov	 word ptr [buf],091D1h
     77	    01D6  EB 0A				 jmp	 wu02
     78	    01D8  66| C7 06 05A7r     +	 wu07:	 mov	 dword ptr [buf],09684E2h
     79		  009684E2
     80	    01E1  41				 inc	 cx
     81	    01E2  41			 wu02:	 inc	 cx
     82	    01E3  B4 40			 wu00:	 mov	 ah,40h
     83	    01E5  B3 01				 mov	 bl,1
     84	    01E7  CD 21				 int	 21H
     85	    01E9  E9 FF7E			 jmp	 w2u
     86
     87	    01EC  B4 3F			 d2u:	 mov	 ah,3Fh
     88	    01EE  33 DB				 xor	 bx,bx
     89	    01F0  B9 0001			 mov	 cx,1
     90	    01F3  BA 05A7r			 lea	 dx,buf
     91	    01F6  CD 21				 int	 21h
     92	    01F8  72 5E				 jc	 exit2
     93	    01FA  0A C4				 or	 al,ah
     94	    01FC  74 5A				 jz	 exit2
     95	    01FE  A0 05A7r			 mov	 al,buf
     96	    0201  3C 80				 cmp	 al,080h
     97	    0203  72 4B				 jc	 d2u0
     98	    0205  3C F0				 cmp	 al,'ð'
     99	    0207  74 2C				 jz	 d2u9
    100	    0209  3C F1				 cmp	 al,'ñ'
    101	    020B  74 30				 jz	 d2u8
    102	    020D  3C FC				 cmp	 al,'ü'
    103	    020F  74 34				 jz	 d2u7
    104	    0211  3C B0				 cmp	 al,0B0h
    105	    0213  72 14				 jc	 d2u6
    106	    0215  3C E0				 cmp	 al,0E0h
    107	    0217  72 D3				 jc	 d2u
    108	    0219  3C F0				 cmp	 al,0F0h
    109	    021B  73 CF				 jnc	 d2u
    110	    021D  2C 60				 sub	 al,60h
    111	    021F  C6 06	05A7r D1		 mov	 [buf],0D1h
    112	    0224  A2 05A8r			 mov	 [buf+1],al
    113	    0227  EB 26				 jmp	 d2u2
    114	    0229  04 10			 d2u6:	 add	 al,10h
Turbo Assembler	 Version 2.5	    14/06/19 22:01:30	    Page 3
utf-8.ASM



    115	    022B  C6 06	05A7r D0		 mov	 [buf],0D0h
    116	    0230  A2 05A8r			 mov	 [buf+1],al
    117	    0233  EB 1A				 jmp	 d2u2
    118	    0235  C7 06	05A7r 81D0	 d2u9:	 mov	 word ptr [buf],081D0h
    119	    023B  EB 12				 jmp	 d2u2
    120	    023D  C7 06	05A7r 91D1	 d2u8:	 mov	 word ptr [buf],091D1h
    121	    0243  EB 0A				 jmp	 d2u2
    122	    0245  66| C7 06 05A7r     +	 d2u7:	 mov	 dword ptr [buf],09684E2h
    123		  009684E2
    124	    024E  41				 inc	 cx
    125	    024F  41			 d2u2:	 inc	 cx
    126	    0250  B4 40			 d2u0:	 mov	 ah,40h
    127	    0252  B3 01				 mov	 bl,1
    128	    0254  CD 21				 int	 21H
    129	    0256  EB 94				 jmp	 d2u
    130	    0258  E9 FF0B		 exit2:	 jmp	 exit
    131
    132	    025B  B4 3F			 u2d:	 mov	 ah,3Fh
    133	    025D  33 DB				 xor	 bx,bx
    134	    025F  B9 0001			 mov	 cx,1
    135	    0262  BA 05A7r			 lea	 dx,buf
    136	    0265  CD 21				 int	 21h
    137	    0267  72 EF				 jc	 exit2
    138	    0269  0A C4				 or	 al,ah
    139	    026B  74 EB				 jz	 exit2
    140	    026D  A0 05A7r			 mov	 al,buf
    141	    0270  3C 80				 cmp	 al,080h
    142	    0272  72 38				 jc	 ud00
    143	    0274  3C D0				 cmp	 al,0D0h
    144	    0276  74 3C				 jz	 udd0
    145	    0278  3C D1				 cmp	 al,0D1h
    146	    027A  74 57				 jz	 udd1
    147	    027C  3C F0				 cmp	 al,0F0h
    148	    027E  73 25				 jnc	 ud0x
    149	    0280  3C E0				 cmp	 al,0E0h
    150	    0282  72 21				 jc	 ud0x
    151	    0284  A2 05A9r			 mov	 [buf+2],al
    152	    0287  B1 02				 mov	 cl,2
    153	    0289  B4 3F				 mov	 ah,3Fh
    154	    028B  CD 21				 int	 21h
    155	    028D  72 C9				 jc	 exit2
    156	    028F  0A C4				 or	 al,ah
    157	    0291  74 C5				 jz	 exit2
    158	    0293  66| 81 3E 05A7r     +		 cmp	 dword ptr [buf],0E29684h
    159		  00E29684
    160	    029C  75 07				 jnz	 ud0x
    161	    029E  C6 06	05A7r FC		 mov	 buf,'ü'
    162	    02A3  EB 05				 jmp	 ud1x
    163	    02A5  C6 06	05A7r F9	 ud0x:	 mov	 buf,'ù'
    164	    02AA  B1 01			 ud1x:	 mov	 cl,1
    165	    02AC  B4 40			 ud00:	 mov	 ah,40h
    166	    02AE  B3 01				 mov	 bl,1
    167	    02B0  CD 21				 int	 21H
    168	    02B2  EB A7				 jmp	 u2d
    169	    02B4  B4 3F			 udd0:	 mov	 ah,3Fh
    170	    02B6  CD 21				 int	 21h
    171	    02B8  72 2A				 jc	 exit3
Turbo Assembler	 Version 2.5	    14/06/19 22:01:30	    Page 4
utf-8.ASM



    172	    02BA  0A C4				 or	 al,ah
    173	    02BC  74 26				 jz	 exit3
    174	    02BE  80 3E	05A7r 81		 cmp	 buf,81h
    175	    02C3  75 07				 jnz	 ud01
    176	    02C5  C6 06	05A7r F0		 mov	 buf,'ð'
    177	    02CA  EB E0				 jmp	 ud00
    178	    02CC  80 2E	05A7r 10	 ud01:	 sub	 buf,10h
    179	    02D1  EB D9				 jmp	 ud00
    180	    02D3  B4 3F			 udd1:	 mov	 ah,3Fh
    181	    02D5  CD 21				 int	 21h
    182	    02D7  72 0B				 jc	 exit3
    183	    02D9  0A C4				 or	 al,ah
    184	    02DB  74 07				 jz	 exit3
    185	    02DD  80 06	05A7r 60		 add	 buf,60h
    186	    02E2  EB C8				 jmp	 ud00
    187	    02E4  E9 FE7F		 exit3:	 jmp	 exit
    188
    189	    02E7  B4 3F			 u2w:	 mov	 ah,3Fh
    190	    02E9  33 DB				 xor	 bx,bx
    191	    02EB  B9 0001			 mov	 cx,1
    192	    02EE  BA 05A7r			 lea	 dx,buf
    193	    02F1  CD 21				 int	 21h
    194	    02F3  72 EF				 jc	 exit3
    195	    02F5  0A C4				 or	 al,ah
    196	    02F7  74 EB				 jz	 exit3
    197	    02F9  A0 05A7r			 mov	 al,buf
    198	    02FC  3C 80				 cmp	 al,080h
    199	    02FE  72 3C				 jc	 uw00
    200	    0300  3C D0				 cmp	 al,0D0h
    201	    0302  74 40				 jz	 uwd0
    202	    0304  3C D1				 cmp	 al,0D1h
    203	    0306  74 5B				 jz	 uwd1
    204	    0308  3C C2				 cmp	 al,0C2h
    205	    030A  74 76				 jz	 uwc2
    206	    030C  3C F0				 cmp	 al,0F0h
    207	    030E  73 25				 jnc	 uw0x
    208	    0310  3C E0				 cmp	 al,0E0h
    209	    0312  72 21				 jc	 uw0x
    210	    0314  A2 05A9r			 mov	 [buf+2],al
    211	    0317  B1 02				 mov	 cl,2
    212	    0319  B4 3F				 mov	 ah,3Fh
    213	    031B  CD 21				 int	 21h
    214	    031D  72 C5				 jc	 exit3
    215	    031F  0A C4				 or	 al,ah
    216	    0321  74 C1				 jz	 exit3
    217	    0323  66| 81 3E 05A7r     +		 cmp	 dword ptr [buf],0E29684h
    218		  00E29684
    219	    032C  75 07				 jnz	 uw0x
    220	    032E  C6 06	05A7r B9		 mov	 buf,'¹'
    221	    0333  EB 05				 jmp	 uw1x
    222	    0335  C6 06	05A7r 07	 uw0x:	 mov	 buf,''
    223	    033A  B1 01			 uw1x:	 mov	 cl,1
    224	    033C  B4 40			 uw00:	 mov	 ah,40h
    225	    033E  B3 01				 mov	 bl,1
    226	    0340  CD 21				 int	 21H
    227	    0342  EB A3				 jmp	 u2w
    228	    0344  B4 3F			 uwd0:	 mov	 ah,3Fh
Turbo Assembler	 Version 2.5	    14/06/19 22:01:30	    Page 5
utf-8.ASM



    229	    0346  CD 21				 int	 21h
    230	    0348  72 44				 jc	 exit4
    231	    034A  0A C4				 or	 al,ah
    232	    034C  74 40				 jz	 exit4
    233	    034E  80 3E	05A7r 81		 cmp	 buf,81h
    234	    0353  75 07				 jnz	 uw01
    235	    0355  C6 06	05A7r A8		 mov	 buf,'¨'
    236	    035A  EB E0				 jmp	 uw00
    237	    035C  80 06	05A7r 30	 uw01:	 add	 buf,30h
    238	    0361  EB D9				 jmp	 uw00
    239	    0363  B4 3F			 uwd1:	 mov	 ah,3Fh
    240	    0365  CD 21				 int	 21h
    241	    0367  72 25				 jc	 exit4
    242	    0369  0A C4				 or	 al,ah
    243	    036B  74 21				 jz	 exit4
    244	    036D  80 3E	05A7r 91		 cmp	 buf,91h
    245	    0372  75 07				 jnz	 uw02
    246	    0374  C6 06	05A7r B8		 mov	 buf,'¸'
    247	    0379  EB C1				 jmp	 uw00
    248	    037B  80 06	05A7r 70	 uw02:	 add	 buf,70h
    249	    0380  EB BA				 jmp	 uw00
    250	    0382  B4 3F			 uwc2:	 mov	 ah,3Fh
    251	    0384  CD 21				 int	 21h
    252	    0386  72 06				 jc	 exit4
    253	    0388  0A C4				 or	 al,ah
    254	    038A  74 02				 jz	 exit4
    255	    038C  EB AE				 jmp	 uw00
    256	    038E  E9 FDD5		 exit4:	 jmp	 exit
    257
    258	    0391  B4 3F			 d2w:	 mov	 ah,3Fh
    259	    0393  33 DB				 xor	 bx,bx
    260	    0395  B9 0001			 mov	 cx,1
    261	    0398  BA 05A7r			 lea	 dx,buf
    262	    039B  CD 21				 int	 21h
    263	    039D  72 EF				 jc	 exit4
    264	    039F  0A C4				 or	 al,ah
    265	    03A1  74 EB				 jz	 exit4
    266	    03A3  A0 05A7r			 mov	 al,buf
    267	    03A6  3C F0				 cmp	 al,'ð'
    268	    03A8  74 2F				 jz	 dw09
    269	    03AA  3C F1				 cmp	 al,'ñ'
    270	    03AC  74 27				 jz	 dw08
    271	    03AE  3C FC				 cmp	 al,'ü'
    272	    03B0  74 1F				 jz	 dw07
    273	    03B2  3C 80				 cmp	 al,080h
    274	    03B4  72 10				 jc	 d2w0
    275	    03B6  3C F0				 cmp	 al,0F0h
    276	    03B8  73 0C				 jnc	 d2w0
    277	    03BA  3C B0				 cmp	 al,0B0h
    278	    03BC  72 06				 jc	 d2w1
    279	    03BE  3C E0				 cmp	 al,0E0h
    280	    03C0  72 04				 jc	 d2w0
    281	    03C2  0C 10				 or	 al,10h
    282	    03C4  0C 40			 d2w1:	 or	 al,40h
    283	    03C6  A2 05A7r		 d2w0:	 mov	 buf,al
    284	    03C9  B4 40				 mov	 ah,40h
    285	    03CB  B3 01				 mov	 bl,1
Turbo Assembler	 Version 2.5	    14/06/19 22:01:30	    Page 6
utf-8.ASM



    286	    03CD  CD 21				 int	 21H
    287	    03CF  EB C0				 jmp	 d2w
    288	    03D1  B0 B9			 dw07:	 mov	 al,'¹'
    289	    03D3  EB F1				 jmp	 d2w0
    290	    03D5  B0 B8			 dw08:	 mov	 al,'¸'
    291	    03D7  EB ED				 jmp	 d2w0
    292	    03D9  B0 A8			 dw09:	 mov	 al,'¨'
    293	    03DB  EB E9				 jmp	 d2w0
    294
    295	    03DD  B4 3F			 w2d:	 mov	 ah,3Fh
    296	    03DF  33 DB				 xor	 bx,bx
    297	    03E1  B9 0001			 mov	 cx,1
    298	    03E4  BA 05A7r			 lea	 dx,buf
    299	    03E7  CD 21				 int	 21h
    300	    03E9  72 36				 jc	 exit5
    301	    03EB  0A C4				 or	 al,ah
    302	    03ED  74 32				 jz	 exit5
    303	    03EF  A0 05A7r			 mov	 al,buf
    304	    03F2  3C A8				 cmp	 al,'¨'
    305	    03F4  74 27				 jz	 wd09
    306	    03F6  3C B8				 cmp	 al,'¸'
    307	    03F8  74 1F				 jz	 wd08
    308	    03FA  3C B9				 cmp	 al,'¹'
    309	    03FC  74 17				 jz	 wd07
    310	    03FE  3C C0				 cmp	 al,0C0h
    311	    0400  72 08				 jc	 w2d0
    312	    0402  24 BF				 and	 al,0bfh
    313	    0404  3C B0				 cmp	 al,0B0h
    314	    0406  72 02				 jc	 w2d0
    315	    0408  04 30				 add	 al,30h
    316	    040A  A2 05A7r		 w2d0:	 mov	 buf,al
    317	    040D  B4 40				 mov	 ah,40h
    318	    040F  B3 01				 mov	 bl,1
    319	    0411  CD 21				 int	 21H
    320	    0413  EB C8				 jmp	 w2d
    321	    0415  B0 FC			 wd07:	 mov	 al,'ü'
    322	    0417  EB F1				 jmp	 w2d0
    323	    0419  B0 F1			 wd08:	 mov	 al,'ñ'
    324	    041B  EB ED				 jmp	 w2d0
    325	    041D  B0 F0			 wd09:	 mov	 al,'ð'
    326	    041F  EB E9				 jmp	 w2d0
    327	    0421  E9 FD42		 exit5:	 jmp	 exit
    328
    329	    0424  B4 3F			 h2s:	 mov	 ah,3Fh
    330	    0426  33 DB				 xor	 bx,bx
    331	    0428  B9 0002			 mov	 cx,2
    332	    042B  BA 05A7r			 lea	 dx,buf
    333	    042E  CD 21				 int	 21h
    334	    0430  72 EF				 jc	 exit5
    335	    0432  0A C4				 or	 al,ah
    336	    0434  74 EB				 jz	 exit5
    337	    0436  A1 05A7r			 mov	 ax,word ptr [buf]
    338	    0439  2C 30				 sub	 al,30h
    339	    043B  72 E4				 jc	 exit5
    340	    043D  3C 0A				 cmp	 al,0ah
    341	    043F  72 02				 jc	 hs01
    342	    0441  2C 07				 sub	 al,7
Turbo Assembler	 Version 2.5	    14/06/19 22:01:30	    Page 7
utf-8.ASM



    343	    0443  80 EC	30		 hs01:	 sub	 ah,30h
    344	    0446  72 D9				 jc	 exit5
    345	    0448  80 FC	0A			 cmp	 ah,0ah
    346	    044B  72 03				 jc	 hs02
    347	    044D  80 EC	07			 sub	 ah,7
    348	    0450  C0 E0	04		 hs02:	 shl	 al,4
    349	    0453  0A C4				 or	 al,ah
    350	    0455  A2 05A7r			 mov	 buf,al
    351	    0458  B4 40				 mov	 ah,40h
    352	    045A  B9 0001			 mov	 cx,1
    353	    045D  B3 01				 mov	 bl,1
    354	    045F  CD 21				 int	 21H
    355	    0461  EB C1				 jmp	 h2s
    356
    357	    0463  55 54	46 2D 38 20 63+	 mess	 db	 'UTF-8	comfile	convertor version 1.1 Copyright	(c) 2018 Semper',0dh,0ah
    358		  6F 6D	66 69 6C 65 20+
    359		  63 6F	6E 76 65 72 74+
    360		  6F 72	20 76 65 72 73+
    361		  69 6F	6E 20 31 2E 31+
    362		  20 43	6F 70 79 72 69+
    363		  67 68	74 20 28 63 29+
    364		  20 32	30 31 38 20 53+
    365		  65 6D	70 65 72 0D 0A
    366	    04A2  53 79	6E 74 61 78 3A+		 db	 'Syntax: utf-8	[options] <in.txt >out.txt',0dh,0ah
    367		  20 75	74 66 2D 38 20+
    368		  5B 6F	70 74 69 6F 6E+
    369		  73 5D	20 3C 69 6E 2E+
    370		  74 78	74 20 3E 6F 75+
    371		  74 2E	74 78 74 0D 0A
    372	    04CC  4F 70	74 69 6F 6E 73+		 db	 'Options:',0dh,0ah
    373		  3A 0D	0A
    374	    04D6  2D 75	64 20 63 6F 6E+		 db	 '-ud convert UTF-8 to CP866',0dh,0ah
    375		  76 65	72 74 20 55 54+
    376		  46 2D	38 20 74 6F 20+
    377		  43 50	38 36 36 0D 0A
    378	    04F2  2D 75	77 20 63 6F 6E+		 db	 '-uw convert UTF-8 to CP1251',0dh,0ah
    379		  76 65	72 74 20 55 54+
    380		  46 2D	38 20 74 6F 20+
    381		  43 50	31 32 35 31 0D+
    382		  0A
    383	    050F  2D 64	75 20 63 6F 6E+		 db	 '-du convert CP866 to UTF-8',0dh,0ah
    384		  76 65	72 74 20 43 50+
    385		  38 36	36 20 74 6F 20+
    386		  55 54	46 2D 38 0D 0A
    387	    052B  2D 77	75 20 63 6F 6E+		 db	 '-wu convert CP1251 to	UTF-8',0dh,0ah
    388		  76 65	72 74 20 43 50+
    389		  31 32	35 31 20 74 6F+
    390		  20 55	54 46 2D 38 0D+
    391		  0A
    392	    0548  2D 64	77 20 63 6F 6E+		 db	 '-dw convert CP866 to CP1251',0dh,0ah
    393		  76 65	72 74 20 43 50+
    394		  38 36	36 20 74 6F 20+
    395		  43 50	31 32 35 31 0D+
    396		  0A
    397	    0565  2D 77	64 20 63 6F 6E+		 db	 '-wd convert CP1251 to	CP866',0dh,0ah
    398		  76 65	72 74 20 43 50+
    399		  31 32	35 31 20 74 6F+
Turbo Assembler	 Version 2.5	    14/06/19 22:01:30	    Page 8
utf-8.ASM



    400		  20 43	50 38 36 36 0D+
    401		  0A
    402	    0582  2D 68	73 20 63 6F 6E+		 db	 '-hs convert text hex code to symbol',0dh,0ah
    403		  76 65	72 74 20 74 65+
    404		  78 74	20 68 65 78 20+
    405		  63 6F	64 65 20 74 6F+
    406		  20 73	79 6D 62 6F 6C+
    407		  0D 0A
    408	    05A7  00 00	00 00		 buf	 db	 0,0,0,0
    409	    05AB  5F 5F	27 5F 22 3A 2B+	 t1251	 db	 "__'_",'"',":++_%_<_____'","'",'"','"--_T_>____'
    410		  2B 5F	25 5F 3C 5F 5F+
    411		  5F 5F	5F 27 27 22 22+
    412		  07 2D	2D 5F 54 5F 3E+
    413		  5F 5F	5F 5F
    414	    05CB			 CODE	 ENDS
    415						 END	 start
Turbo Assembler	 Version 2.5	    14/06/19 22:01:30	    Page 9
Symbol Table




Symbol Name			  Type	 Value

??DATE				  Text	 "14/06/19"
??FILENAME			  Text	 "utf-8	  "
??TIME				  Text	 "22:01:30"
??VERSION			  Number 0205
@CPU				  Text	 0D0FH
@CURSEG				  Text	 CODE
@FILENAME			  Text	 UTF-8
@WORDSIZE			  Text	 2
BUF				  Byte	 CODE:05A7
CLINE				  Near	 CODE:0081
D2U				  Near	 CODE:01EC
D2U0				  Near	 CODE:0250
D2U2				  Near	 CODE:024F
D2U6				  Near	 CODE:0229
D2U7				  Near	 CODE:0245
D2U8				  Near	 CODE:023D
D2U9				  Near	 CODE:0235
D2W				  Near	 CODE:0391
D2W0				  Near	 CODE:03C6
D2W1				  Near	 CODE:03C4
DW07				  Near	 CODE:03D1
DW08				  Near	 CODE:03D5
DW09				  Near	 CODE:03D9
EXIT				  Near	 CODE:0166
EXIT2				  Near	 CODE:0258
EXIT3				  Near	 CODE:02E4
EXIT4				  Near	 CODE:038E
EXIT5				  Near	 CODE:0421
H2S				  Near	 CODE:0424
HS01				  Near	 CODE:0443
HS02				  Near	 CODE:0450
MESS				  Byte	 CODE:0463
START				  Near	 CODE:0100
T1251				  Byte	 CODE:05AB
U2D				  Near	 CODE:025B
U2W				  Near	 CODE:02E7
UD00				  Near	 CODE:02AC
UD01				  Near	 CODE:02CC
UD0X				  Near	 CODE:02A5
UD1X				  Near	 CODE:02AA
UDD0				  Near	 CODE:02B4
UDD1				  Near	 CODE:02D3
UW00				  Near	 CODE:033C
UW01				  Near	 CODE:035C
UW02				  Near	 CODE:037B
UW0X				  Near	 CODE:0335
UW1X				  Near	 CODE:033A
UWC2				  Near	 CODE:0382
UWD0				  Near	 CODE:0344
UWD1				  Near	 CODE:0363
W2D				  Near	 CODE:03DD
W2D0				  Near	 CODE:040A
W2U				  Near	 CODE:016A
WD07				  Near	 CODE:0415
Turbo Assembler	 Version 2.5	    14/06/19 22:01:30	    Page 10
Symbol Table



WD08				  Near	 CODE:0419
WD09				  Near	 CODE:041D
WU00				  Near	 CODE:01E3
WU02				  Near	 CODE:01E2
WU04				  Near	 CODE:01A7
WU05				  Near	 CODE:01B2
WU06				  Near	 CODE:01BC
WU07				  Near	 CODE:01D8
WU08				  Near	 CODE:01D0
WU09				  Near	 CODE:01C8

Groups & Segments		  Bit Size Align  Combine Class

CODE				  16  05CB Para	  none
